target datalayout = "e-m:e-p270:32:32-p271:32:32-p272:64:64-i64:64-i128:128-f80:128-n8:16:32:64-S128"
target triple = "x86_64-pc-linux-gnu"

%"class.std::__cxx11::basic_string" = type { %"struct.std::__cxx11::basic_string<char>::_Alloc_hider", i64, %union.anon }
%"struct.std::__cxx11::basic_string<char>::_Alloc_hider" = type { ptr }
%union.anon = type { i64, [8 x i8] }
%"class.pybind11::object" = type { %"class.pybind11::handle" }
%"class.pybind11::handle" = type { ptr }
%"struct.pybind11::detail::void_type" = type { i8 }
%"class.pybind11::memoryview" = type { %"class.pybind11::object" }
%"class.pybind11::detail::argument_loader.1034" = type { %"class.std::tuple.1035" }
%"class.std::tuple.1035" = type { %"struct.std::_Tuple_impl.1036" }
%"struct.std::_Tuple_impl.1036" = type { %"struct.std::_Head_base.1037" }
%"struct.std::_Head_base.1037" = type { %"class.pybind11::detail::type_caster.1038" }
%"class.pybind11::detail::type_caster.1038" = type { %"struct.pybind11::detail::pyobject_caster.1039" }
%"struct.pybind11::detail::pyobject_caster.1039" = type { %"class.pybind11::buffer" }
%"class.pybind11::buffer" = type { %"class.pybind11::object" }
%"struct.pybind11::buffer_info" = type <{ ptr, i64, i64, %"class.std::__cxx11::basic_string", i64, %"class.std::vector.1043", %"class.std::vector.1043", i8, [7 x i8], ptr, i8, [7 x i8] }>
%"class.std::vector.1043" = type { %"struct.std::_Vector_base.1044" }
%"struct.std::_Vector_base.1044" = type { %"struct.std::_Vector_base<long, std::allocator<long>>::_Vector_impl" }
%"struct.std::_Vector_base<long, std::allocator<long>>::_Vector_impl" = type { %"struct.std::_Vector_base<long, std::allocator<long>>::_Vector_impl_data" }
%"struct.std::_Vector_base<long, std::allocator<long>>::_Vector_impl_data" = type { ptr, ptr, ptr }
%struct.bufferinfo = type { ptr, ptr, i64, i64, i32, i32, ptr, ptr, ptr, ptr, ptr }

@.str.402 = private unnamed_addr constant [50 x i8] c"Prohibited to create memoryview without Py_buffer\00", align 1
@.str.403 = private unnamed_addr constant [51 x i8] c"Unable to create memoryview from buffer descriptor\00", align 1

; Function Attrs: mustprogress nounwind uwtable
define linkonce_odr hidden void @_ZN8pybind116handleC2Ev(ptr noundef nonnull align 8 dereferenceable(8) %0) unnamed_addr #0 comdat align 2 {
  %2 = alloca ptr, align 8
  store ptr %0, ptr %2, align 8
  %3 = load ptr, ptr %2, align 8
  %4 = getelementptr inbounds %"class.pybind11::handle", ptr %3, i32 0, i32 0
  store ptr null, ptr %4, align 8
  ret void
}

; Function Attrs: mustprogress nounwind uwtable
define linkonce_odr hidden noundef nonnull align 8 dereferenceable(8) ptr @_ZNSt10_Head_baseILm0EN8pybind116detail11type_casterINS0_6bufferEvEELb0EE7_M_headERS5_(ptr noundef nonnull align 8 dereferenceable(8) %0) #0 comdat align 2 {
  %2 = alloca ptr, align 8
  store ptr %0, ptr %2, align 8
  %3 = load ptr, ptr %2, align 8
  %4 = getelementptr inbounds %"struct.std::_Head_base.1037", ptr %3, i32 0, i32 0
  ret ptr %4
}

; Function Attrs: mustprogress nounwind uwtable
define linkonce_odr hidden noundef ptr @_ZNK8pybind1111buffer_info4viewEv(ptr noundef nonnull align 8 dereferenceable(129) %0) #0 comdat align 2 {
  %2 = alloca ptr, align 8
  store ptr %0, ptr %2, align 8
  %3 = load ptr, ptr %2, align 8
  %4 = getelementptr inbounds %"struct.pybind11::buffer_info", ptr %3, i32 0, i32 9
  %5 = load ptr, ptr %4, align 8
  ret ptr %5
}

; Function Attrs: mustprogress nounwind uwtable
define linkonce_odr hidden void @_ZN8pybind116objectC2Ev(ptr noundef nonnull align 8 dereferenceable(8) %0) unnamed_addr #0 comdat align 2 {
  %2 = alloca ptr, align 8
  store ptr %0, ptr %2, align 8
  %3 = load ptr, ptr %2, align 8
  call void @_ZN8pybind116handleC2Ev(ptr noundef nonnull align 8 dereferenceable(8) %3) #16
  ret void
}

; Function Attrs: mustprogress nounwind uwtable
define linkonce_odr hidden noundef nonnull align 8 dereferenceable(8) ptr @_ZNSt11_Tuple_implILm0EJN8pybind116detail11type_casterINS0_6bufferEvEEEE7_M_headERS5_(ptr noundef nonnull align 8 dereferenceable(8) %0) #0 comdat align 2 {
  %2 = alloca ptr, align 8
  store ptr %0, ptr %2, align 8
  %3 = load ptr, ptr %2, align 8
  %4 = call noundef nonnull align 8 dereferenceable(8) ptr @_ZNSt10_Head_baseILm0EN8pybind116detail11type_casterINS0_6bufferEvEELb0EE7_M_headERS5_(ptr noundef nonnull align 8 dereferenceable(8) %3) #16
  ret ptr %4
}

; Function Attrs: mustprogress uwtable
define linkonce_odr hidden void @_ZN8pybind1110memoryviewC2ERKNS_11buffer_infoE(ptr noundef nonnull align 8 dereferenceable(8) %0, ptr noundef nonnull align 8 dereferenceable(129) %1) unnamed_addr #1 comdat align 2 personality ptr @__gxx_personality_v0 {
  %3 = alloca ptr, align 8
  %4 = alloca ptr, align 8
  %5 = alloca ptr, align 8
  %6 = alloca i32, align 4
  store ptr %0, ptr %3, align 8
  store ptr %1, ptr %4, align 8
  %7 = load ptr, ptr %3, align 8
  call void @_ZN8pybind116objectC2Ev(ptr noundef nonnull align 8 dereferenceable(8) %7) #16
  %8 = load ptr, ptr %4, align 8
  %9 = invoke noundef ptr @_ZNK8pybind1111buffer_info4viewEv(ptr noundef nonnull align 8 dereferenceable(129) %8)
          to label %10 unwind label %14

10:                                               ; preds = %2
  %11 = icmp ne ptr %9, null
  br i1 %11, label %18, label %12

12:                                               ; preds = %10
  invoke void @_ZN8pybind1113pybind11_failEPKc(ptr noundef @.str.402) #21
          to label %13 unwind label %14

13:                                               ; preds = %12
  unreachable

14:                                               ; preds = %45, %36, %33, %28, %25, %18, %12, %2
  %15 = landingpad { ptr, i32 }
          cleanup
  %16 = extractvalue { ptr, i32 } %15, 0
  store ptr %16, ptr %5, align 8
  %17 = extractvalue { ptr, i32 } %15, 1
  store i32 %17, ptr %6, align 4
  call void @_ZN8pybind116objectD2Ev(ptr noundef nonnull align 8 dereferenceable(8) %7) #16
  br label %48

18:                                               ; preds = %10
  %19 = load ptr, ptr %4, align 8
  %20 = invoke noundef ptr @_ZNK8pybind1111buffer_info4viewEv(ptr noundef nonnull align 8 dereferenceable(129) %19)
          to label %21 unwind label %14

21:                                               ; preds = %18
  %22 = getelementptr inbounds %struct.bufferinfo, ptr %20, i32 0, i32 1
  %23 = load ptr, ptr %22, align 8
  %24 = icmp ne ptr %23, null
  br i1 %24, label %25, label %33

25:                                               ; preds = %21
  %26 = load ptr, ptr %4, align 8
  %27 = invoke noundef ptr @_ZNK8pybind1111buffer_info4viewEv(ptr noundef nonnull align 8 dereferenceable(129) %26)
          to label %28 unwind label %14

28:                                               ; preds = %25
  %29 = getelementptr inbounds %struct.bufferinfo, ptr %27, i32 0, i32 1
  %30 = load ptr, ptr %29, align 8
  %31 = invoke ptr @PyMemoryView_FromObject(ptr noundef %30)
          to label %32 unwind label %14

32:                                               ; preds = %28
  br label %39

33:                                               ; preds = %21
  %34 = load ptr, ptr %4, align 8
  %35 = invoke noundef ptr @_ZNK8pybind1111buffer_info4viewEv(ptr noundef nonnull align 8 dereferenceable(129) %34)
          to label %36 unwind label %14

36:                                               ; preds = %33
  %37 = invoke ptr @PyMemoryView_FromBuffer(ptr noundef %35)
          to label %38 unwind label %14

38:                                               ; preds = %36
  br label %39

39:                                               ; preds = %38, %32
  %40 = phi ptr [ %31, %32 ], [ %37, %38 ]
  %41 = getelementptr inbounds %"class.pybind11::handle", ptr %7, i32 0, i32 0
  store ptr %40, ptr %41, align 8
  %42 = getelementptr inbounds %"class.pybind11::handle", ptr %7, i32 0, i32 0
  %43 = load ptr, ptr %42, align 8
  %44 = icmp ne ptr %43, null
  br i1 %44, label %47, label %45

45:                                               ; preds = %39
  invoke void @_ZN8pybind1113pybind11_failEPKc(ptr noundef @.str.403) #21
          to label %46 unwind label %14

46:                                               ; preds = %45
  unreachable

47:                                               ; preds = %39
  ret void

48:                                               ; preds = %14
  %49 = load ptr, ptr %5, align 8
  %50 = load i32, ptr %6, align 4
  %51 = insertvalue { ptr, i32 } poison, ptr %49, 0
  %52 = insertvalue { ptr, i32 } %51, i32 %50, 1
  resume { ptr, i32 } %52
}

; Function Attrs: mustprogress nounwind uwtable
define linkonce_odr hidden noundef nonnull align 8 dereferenceable(8) ptr @_ZN8pybind116detail15pyobject_casterINS_6bufferEEcvRS2_Ev(ptr noundef nonnull align 8 dereferenceable(8) %0) #0 comdat align 2 {
  %2 = alloca ptr, align 8
  store ptr %0, ptr %2, align 8
  %3 = load ptr, ptr %2, align 8
  %4 = getelementptr inbounds %"struct.pybind11::detail::pyobject_caster.1039", ptr %3, i32 0, i32 0
  ret ptr %4
}

; Function Attrs: mustprogress nounwind uwtable
define linkonce_odr hidden noundef nonnull align 8 dereferenceable(8) ptr @_ZSt12__get_helperILm0EN8pybind116detail11type_casterINS0_6bufferEvEEJEERT0_RSt11_Tuple_implIXT_EJS5_DpT1_EE(ptr noundef nonnull align 8 dereferenceable(8) %0) #0 comdat {
  %2 = alloca ptr, align 8
  store ptr %0, ptr %2, align 8
  %3 = load ptr, ptr %2, align 8
  %4 = call noundef nonnull align 8 dereferenceable(8) ptr @_ZNSt11_Tuple_implILm0EJN8pybind116detail11type_casterINS0_6bufferEvEEEE7_M_headERS5_(ptr noundef nonnull align 8 dereferenceable(8) %3) #16
  ret ptr %4
}

; Function Attrs: mustprogress uwtable
define internal void @"_ZZ22test_submodule_pytypesRN8pybind117module_EENK4$_84clERKNS_6bufferE"(ptr dead_on_unwind noalias writable sret(%"class.pybind11::memoryview") align 8 %0, ptr noundef nonnull align 1 dereferenceable(1) %1, ptr noundef nonnull align 8 dereferenceable(8) %2) #1 align 2 personality ptr @__gxx_personality_v0 {
  %4 = alloca ptr, align 8
  %5 = alloca ptr, align 8
  %6 = alloca ptr, align 8
  %7 = alloca %"struct.pybind11::buffer_info", align 8
  %8 = alloca ptr, align 8
  %9 = alloca i32, align 4
  store ptr %0, ptr %4, align 8
  store ptr %1, ptr %5, align 8
  store ptr %2, ptr %6, align 8
  %10 = load ptr, ptr %6, align 8
  call void @_ZNK8pybind116buffer7requestEb(ptr dead_on_unwind writable sret(%"struct.pybind11::buffer_info") align 8 %7, ptr noundef nonnull align 8 dereferenceable(8) %10, i1 noundef zeroext false)
  invoke void @_ZN8pybind1110memoryviewC2ERKNS_11buffer_infoE(ptr noundef nonnull align 8 dereferenceable(8) %0, ptr noundef nonnull align 8 dereferenceable(129) %7)
          to label %11 unwind label %12

11:                                               ; preds = %3
  call void @_ZN8pybind1111buffer_infoD2Ev(ptr noundef nonnull align 8 dereferenceable(129) %7) #16
  ret void

12:                                               ; preds = %3
  %13 = landingpad { ptr, i32 }
          cleanup
  %14 = extractvalue { ptr, i32 } %13, 0
  store ptr %14, ptr %8, align 8
  %15 = extractvalue { ptr, i32 } %13, 1
  store i32 %15, ptr %9, align 4
  call void @_ZN8pybind1111buffer_infoD2Ev(ptr noundef nonnull align 8 dereferenceable(129) %7) #16
  br label %16

16:                                               ; preds = %12
  %17 = load ptr, ptr %8, align 8
  %18 = load i32, ptr %9, align 4
  %19 = insertvalue { ptr, i32 } poison, ptr %17, 0
  %20 = insertvalue { ptr, i32 } %19, i32 %18, 1
  resume { ptr, i32 } %20
}

; Function Attrs: mustprogress uwtable
define linkonce_odr hidden noundef nonnull align 8 dereferenceable(8) ptr @_ZN8pybind116detail7cast_opIRKNS_6bufferEEENS0_11type_casterINS0_14intrinsic_typeIT_E4typeEvE12cast_op_typeINSt20add_rvalue_referenceIS7_E4typeEEEOSA_(ptr noundef nonnull align 8 dereferenceable(8) %0) #1 comdat {
  %2 = alloca ptr, align 8
  store ptr %0, ptr %2, align 8
  %3 = load ptr, ptr %2, align 8
  %4 = call noundef nonnull align 8 dereferenceable(8) ptr @_ZN8pybind116detail15pyobject_casterINS_6bufferEEcvRS2_Ev(ptr noundef nonnull align 8 dereferenceable(8) %3)
  ret ptr %4
}

; Function Attrs: mustprogress nounwind uwtable
define linkonce_odr hidden noundef nonnull align 8 dereferenceable(8) ptr @_ZSt3getILm0EJN8pybind116detail11type_casterINS0_6bufferEvEEEERNSt13tuple_elementIXT_ESt5tupleIJDpT0_EEE4typeERS9_(ptr noundef nonnull align 8 dereferenceable(8) %0) #0 comdat {
  %2 = alloca ptr, align 8
  store ptr %0, ptr %2, align 8
  %3 = load ptr, ptr %2, align 8
  %4 = call noundef nonnull align 8 dereferenceable(8) ptr @_ZSt12__get_helperILm0EN8pybind116detail11type_casterINS0_6bufferEvEEJEERT0_RSt11_Tuple_implIXT_EJS5_DpT1_EE(ptr noundef nonnull align 8 dereferenceable(8) %3) #16
  ret ptr %4
}

; Function Attrs: mustprogress uwtable
define internal void @"_ZNO8pybind116detail15argument_loaderIJRKNS_6bufferEEE9call_implINS_10memoryviewERZ22test_submodule_pytypesRNS_7module_EE4$_84JLm0EENS0_9void_typeEEET_OT0_St16integer_sequenceImJXspT1_EEEOT2_"(ptr dead_on_unwind noalias writable sret(%"class.pybind11::memoryview") align 8 %0, ptr noundef nonnull align 8 dereferenceable(8) %1, ptr noundef nonnull align 1 dereferenceable(1) %2, ptr noundef nonnull align 1 dereferenceable(1) %3) #1 align 2 {
  %5 = alloca ptr, align 8
  %6 = alloca ptr, align 8
  %7 = alloca ptr, align 8
  %8 = alloca ptr, align 8
  store ptr %0, ptr %5, align 8
  store ptr %1, ptr %6, align 8
  store ptr %2, ptr %7, align 8
  store ptr %3, ptr %8, align 8
  %9 = load ptr, ptr %6, align 8
  %10 = load ptr, ptr %7, align 8
  %11 = getelementptr inbounds %"class.pybind11::detail::argument_loader.1034", ptr %9, i32 0, i32 0
  %12 = call noundef nonnull align 8 dereferenceable(8) ptr @_ZSt3getILm0EJN8pybind116detail11type_casterINS0_6bufferEvEEEERNSt13tuple_elementIXT_ESt5tupleIJDpT0_EEE4typeERS9_(ptr noundef nonnull align 8 dereferenceable(8) %11) #16
  %13 = call noundef nonnull align 8 dereferenceable(8) ptr @_ZN8pybind116detail7cast_opIRKNS_6bufferEEENS0_11type_casterINS0_14intrinsic_typeIT_E4typeEvE12cast_op_typeINSt20add_rvalue_referenceIS7_E4typeEEEOSA_(ptr noundef nonnull align 8 dereferenceable(8) %12)
  call void @"_ZZ22test_submodule_pytypesRN8pybind117module_EENK4$_84clERKNS_6bufferE"(ptr dead_on_unwind writable sret(%"class.pybind11::memoryview") align 8 %0, ptr noundef nonnull align 1 dereferenceable(1) %10, ptr noundef nonnull align 8 dereferenceable(8) %13)
  ret void
}

; Function Attrs: mustprogress uwtable
define internal void @"_ZNO8pybind116detail15argument_loaderIJRKNS_6bufferEEE4callINS_10memoryviewENS0_9void_typeERZ22test_submodule_pytypesRNS_7module_EE4$_84EENSt9enable_ifIXntsr3std7is_voidIT_EE5valueESE_E4typeEOT1_"(ptr dead_on_unwind noalias writable sret(%"class.pybind11::memoryview") align 8 %0, ptr noundef nonnull align 8 dereferenceable(8) %1, ptr noundef nonnull align 1 dereferenceable(1) %2) #1 align 2 {
  %4 = alloca ptr, align 8
  %5 = alloca ptr, align 8
  %6 = alloca ptr, align 8
  %7 = alloca %"struct.pybind11::detail::void_type", align 1
  store ptr %0, ptr %4, align 8
  store ptr %1, ptr %5, align 8
  store ptr %2, ptr %6, align 8
  %8 = load ptr, ptr %5, align 8
  %9 = load ptr, ptr %6, align 8
  call void @"_ZNO8pybind116detail15argument_loaderIJRKNS_6bufferEEE9call_implINS_10memoryviewERZ22test_submodule_pytypesRNS_7module_EE4$_84JLm0EENS0_9void_typeEEET_OT0_St16integer_sequenceImJXspT1_EEEOT2_"(ptr dead_on_unwind writable sret(%"class.pybind11::memoryview") align 8 %0, ptr noundef nonnull align 8 dereferenceable(8) %8, ptr noundef nonnull align 1 dereferenceable(1) %9, ptr noundef nonnull align 1 dereferenceable(1) %7)
  ret void
}