; Function Attrs: mustprogress uwtable
define internal fastcc void @"_ZNO8pybind116detail15argument_loaderIJRKNS_6bufferEEE4callINS_10memoryviewENS0_9void_typeERZ22test_submodule_pytypesRNS_7module_EE4$_84EENSt9enable_ifIXntsr3std7is_voidIT_EE5valueESE_E4typeEOT1_"(ptr dead_on_unwind noalias writable align 8 %0, ptr noundef nonnull align 8 dereferenceable(8) %1) unnamed_addr #1 align 2 personality ptr @__gxx_personality_v0 {
  %3 = alloca %"struct.pybind11::buffer_info", align 8
  tail call void @llvm.experimental.noalias.scope.decl(metadata !4748)
  tail call void @llvm.experimental.noalias.scope.decl(metadata !4751)
  call void @llvm.lifetime.start.p0(i64 136, ptr nonnull %3), !noalias !4748
  call void @_ZNK8pybind116buffer7requestEb(ptr dead_on_unwind nonnull writable sret(%"struct.pybind11::buffer_info") align 8 %3, ptr noundef nonnull align 8 dereferenceable(8) %1, i1 noundef zeroext false), !noalias !4754
  store ptr null, ptr %0, align 8, !alias.scope !4754
  %4 = getelementptr inbounds i8, ptr %3, i64 120
  %5 = load ptr, ptr %4, align 8, !noalias !4754
  %.not.i.i.i = icmp eq ptr %5, null
  br i1 %.not.i.i.i, label %.invoke.i.i.i, label %7

.body.i.i:                                        ; preds = %.invoke.i.i.i, %12, %10
  %6 = landingpad { ptr, i32 }
          cleanup
  call void @_ZN8pybind116objectD2Ev(ptr noundef nonnull align 8 dereferenceable(8) %0) #25
  call void @_ZN8pybind1111buffer_infoD2Ev(ptr noundef nonnull align 8 dereferenceable(129) %3) #25
  resume { ptr, i32 } %6

7:                                                ; preds = %2
  %8 = getelementptr inbounds i8, ptr %5, i64 8
  %9 = load ptr, ptr %8, align 8, !noalias !4754
  %.not6.i.i.i = icmp eq ptr %9, null
  br i1 %.not6.i.i.i, label %12, label %10

10:                                               ; preds = %7
  %11 = invoke ptr @PyMemoryView_FromObject(ptr noundef nonnull %9)
          to label %14 unwind label %.body.i.i, !noalias !4754

12:                                               ; preds = %7
  %13 = invoke ptr @PyMemoryView_FromBuffer(ptr noundef nonnull %5)
          to label %14 unwind label %.body.i.i, !noalias !4754

14:                                               ; preds = %12, %10
  %15 = phi ptr [ %11, %10 ], [ %13, %12 ]
  store ptr %15, ptr %0, align 8, !alias.scope !4754
  %.not7.i.i.i = icmp eq ptr %15, null
  br i1 %.not7.i.i.i, label %.invoke.i.i.i, label %"_ZNO8pybind116detail15argument_loaderIJRKNS_6bufferEEE9call_implINS_10memoryviewERZ22test_submodule_pytypesRNS_7module_EE4$_84JLm0EENS0_9void_typeEEET_OT0_St16integer_sequenceImJXspT1_EEEOT2_.exit"

.invoke.i.i.i:                                    ; preds = %14, %2
  %16 = phi ptr [ @.str.403, %14 ], [ @.str.402, %2 ]
  invoke void @_ZN8pybind1113pybind11_failEPKc(ptr noundef nonnull %16) #30
          to label %.cont.i.i.i unwind label %.body.i.i, !noalias !4754

.cont.i.i.i:                                      ; preds = %.invoke.i.i.i
  unreachable

"_ZNO8pybind116detail15argument_loaderIJRKNS_6bufferEEE9call_implINS_10memoryviewERZ22test_submodule_pytypesRNS_7module_EE4$_84JLm0EENS0_9void_typeEEET_OT0_St16integer_sequenceImJXspT1_EEEOT2_.exit": ; preds = %14
  call void @_ZN8pybind1111buffer_infoD2Ev(ptr noundef nonnull align 8 dereferenceable(129) %3) #25, !noalias !4754
  call void @llvm.lifetime.end.p0(i64 136, ptr nonnull %3), !noalias !4748
  ret void
}